target datalayout = "e-m:e-p270:32:32-p271:32:32-p272:64:64-i64:64-i128:128-f80:128-n8:16:32:64-S128"
target triple = "x86_64-pc-linux-gnu"

%struct.jv = type { i8, i8, i16, i32, %union.anon }
%union.anon = type { ptr }
%struct.jv_refcnt = type { i32 }
%struct.jvp_object = type { %struct.jv_refcnt, i32, [0 x %struct.object_slot] }
%struct.object_slot = type { i32, i32, %struct.jv, %struct.jv }

; Function Attrs: nounwind uwtable
define internal ptr @jvp_object_ptr(i64 %0, ptr %1) #0 {
  %3 = alloca %struct.jv, align 8
  %4 = getelementptr inbounds nuw { i64, ptr }, ptr %3, i32 0, i32 0
  store i64 %0, ptr %4, align 8
  %5 = getelementptr inbounds nuw { i64, ptr }, ptr %3, i32 0, i32 1
  store ptr %1, ptr %5, align 8
  %6 = getelementptr inbounds nuw %struct.jv, ptr %3, i32 0, i32 4
  %7 = load ptr, ptr %6, align 8, !tbaa !12
  ret ptr %7
}

; Function Attrs: nounwind uwtable
define dso_local i32 @jv_get_kind(i64 %0, ptr %1) #0 {
  %3 = alloca %struct.jv, align 8
  %4 = getelementptr inbounds nuw { i64, ptr }, ptr %3, i32 0, i32 0
  store i64 %0, ptr %4, align 8
  %5 = getelementptr inbounds nuw { i64, ptr }, ptr %3, i32 0, i32 1
  store ptr %1, ptr %5, align 8
  %6 = getelementptr inbounds nuw %struct.jv, ptr %3, i32 0, i32 0
  %7 = load i8, ptr %6, align 8, !tbaa !4
  %8 = zext i8 %7 to i32
  %9 = and i32 %8, 15
  ret i32 %9
}

; Function Attrs: nounwind uwtable
define internal ptr @jvp_object_get_slot(i64 %0, ptr %1, i32 noundef %2) #0 {
  %4 = alloca ptr, align 8
  %5 = alloca %struct.jv, align 8
  %6 = alloca i32, align 4
  %7 = getelementptr inbounds nuw { i64, ptr }, ptr %5, i32 0, i32 0
  store i64 %0, ptr %7, align 8
  %8 = getelementptr inbounds nuw { i64, ptr }, ptr %5, i32 0, i32 1
  store ptr %1, ptr %8, align 8
  store i32 %2, ptr %6, align 4, !tbaa !10
  %9 = load i32, ptr %6, align 4, !tbaa !10
  %10 = icmp eq i32 %9, -1
  br i1 %10, label %11, label %12

11:                                               ; preds = %3
  store ptr null, ptr %4, align 8
  br label %22

12:                                               ; preds = %3
  %13 = getelementptr inbounds nuw { i64, ptr }, ptr %5, i32 0, i32 0
  %14 = load i64, ptr %13, align 8
  %15 = getelementptr inbounds nuw { i64, ptr }, ptr %5, i32 0, i32 1
  %16 = load ptr, ptr %15, align 8
  %17 = call ptr @jvp_object_ptr(i64 %14, ptr %16)
  %18 = getelementptr inbounds nuw %struct.jvp_object, ptr %17, i32 0, i32 2
  %19 = load i32, ptr %6, align 4, !tbaa !10
  %20 = sext i32 %19 to i64
  %21 = getelementptr inbounds [0 x %struct.object_slot], ptr %18, i64 0, i64 %20
  store ptr %21, ptr %4, align 8
  br label %22

22:                                               ; preds = %12, %11
  %23 = load ptr, ptr %4, align 8
  ret ptr %23
}

; Function Attrs: nounwind uwtable
define internal i32 @jvp_object_size(i64 %0, ptr %1) #0 {
  %3 = alloca %struct.jv, align 8
  %4 = getelementptr inbounds nuw { i64, ptr }, ptr %3, i32 0, i32 0
  store i64 %0, ptr %4, align 8
  %5 = getelementptr inbounds nuw { i64, ptr }, ptr %3, i32 0, i32 1
  store ptr %1, ptr %5, align 8
  %6 = getelementptr inbounds nuw %struct.jv, ptr %3, i32 0, i32 3
  %7 = load i32, ptr %6, align 4, !tbaa !19
  ret i32 %7
}

; Function Attrs: nounwind uwtable
define dso_local i32 @jv_object_iter_next(i64 %0, ptr %1, i32 noundef %2) #0 {
  %4 = alloca i32, align 4
  %5 = alloca %struct.jv, align 8
  %6 = alloca i32, align 4
  %7 = alloca ptr, align 8
  %8 = alloca i32, align 4
  %9 = getelementptr inbounds nuw { i64, ptr }, ptr %5, i32 0, i32 0
  store i64 %0, ptr %9, align 8
  %10 = getelementptr inbounds nuw { i64, ptr }, ptr %5, i32 0, i32 1
  store ptr %1, ptr %10, align 8
  store i32 %2, ptr %6, align 4, !tbaa !10
  call void @llvm.lifetime.start.p0(i64 8, ptr %7) #11
  br label %11

11:                                               ; preds = %29, %3
  %12 = load i32, ptr %6, align 4, !tbaa !10
  %13 = add nsw i32 %12, 1
  store i32 %13, ptr %6, align 4, !tbaa !10
  %14 = load i32, ptr %6, align 4, !tbaa !10
  %15 = getelementptr inbounds nuw { i64, ptr }, ptr %5, i32 0, i32 0
  %16 = load i64, ptr %15, align 8
  %17 = getelementptr inbounds nuw { i64, ptr }, ptr %5, i32 0, i32 1
  %18 = load ptr, ptr %17, align 8
  %19 = call i32 @jvp_object_size(i64 %16, ptr %18)
  %20 = icmp sge i32 %14, %19
  br i1 %20, label %21, label %22

21:                                               ; preds = %11
  store i32 -2, ptr %4, align 4
  store i32 1, ptr %8, align 4
  br label %40

22:                                               ; preds = %11
  %23 = load i32, ptr %6, align 4, !tbaa !10
  %24 = getelementptr inbounds nuw { i64, ptr }, ptr %5, i32 0, i32 0
  %25 = load i64, ptr %24, align 8
  %26 = getelementptr inbounds nuw { i64, ptr }, ptr %5, i32 0, i32 1
  %27 = load ptr, ptr %26, align 8
  %28 = call ptr @jvp_object_get_slot(i64 %25, ptr %27, i32 noundef %23)
  store ptr %28, ptr %7, align 8, !tbaa !74
  br label %29

29:                                               ; preds = %22
  %30 = load ptr, ptr %7, align 8, !tbaa !74
  %31 = getelementptr inbounds nuw %struct.object_slot, ptr %30, i32 0, i32 2
  %32 = getelementptr inbounds nuw { i64, ptr }, ptr %31, i32 0, i32 0
  %33 = load i64, ptr %32, align 8
  %34 = getelementptr inbounds nuw { i64, ptr }, ptr %31, i32 0, i32 1
  %35 = load ptr, ptr %34, align 8
  %36 = call i32 @jv_get_kind(i64 %33, ptr %35)
  %37 = icmp eq i32 %36, 1
  br i1 %37, label %11, label %38, !llvm.loop !80

38:                                               ; preds = %29
  %39 = load i32, ptr %6, align 4, !tbaa !10
  store i32 %39, ptr %4, align 4
  store i32 1, ptr %8, align 4
  br label %40

40:                                               ; preds = %38, %21
  call void @llvm.lifetime.end.p0(i64 8, ptr %7) #11
  %41 = load i32, ptr %4, align 4
  ret i32 %41
}