; Function Attrs: nofree norecurse nosync nounwind memory(read, inaccessiblemem: none) uwtable
define dso_local range(i32 -2147483647, 2147483647) i32 @jv_object_iter_next(i64 %0, ptr readonly captures(none) %1, i32 noundef %2) local_unnamed_addr #16 {
  %4 = getelementptr inbounds nuw i8, ptr %1, i64 8
  %5 = sext i32 %2 to i64
  %6 = ashr i64 %0, 32
  br label %7

7:                                                ; preds = %8, %3
  %indvars.iv = phi i64 [ %indvars.iv.next, %8 ], [ %5, %3 ]
  %indvars.iv.next = add nsw i64 %indvars.iv, 1
  %.not = icmp slt i64 %indvars.iv.next, %6
  br i1 %.not, label %8, label %.split.loop.exit10

8:                                                ; preds = %7
  %9 = icmp eq i64 %indvars.iv.next, -1
  %10 = getelementptr inbounds [0 x %struct.object_slot], ptr %4, i64 0, i64 %indvars.iv.next
  %.0.i = select i1 %9, ptr null, ptr %10
  %11 = getelementptr inbounds nuw i8, ptr %.0.i, i64 8
  %12 = load i64, ptr %11, align 8
  %13 = and i64 %12, 15
  %14 = icmp eq i64 %13, 1
  br i1 %14, label %7, label %.split.loop.exit, !llvm.loop !64

.split.loop.exit:                                 ; preds = %8
  %15 = trunc nsw i64 %indvars.iv.next to i32
  br label %.split.loop.exit10

.split.loop.exit10:                               ; preds = %7, %.split.loop.exit
  %.0 = phi i32 [ %15, %.split.loop.exit ], [ -2, %7 ]
  ret i32 %.0
}